; Function Attrs: mustprogress nofree norecurse nosync nounwind willreturn memory(argmem: readwrite) uwtable
define void @png_convert_from_struct_tm(ptr nocapture noundef writeonly %0, ptr nocapture noundef readonly %1) local_unnamed_addr #3 {
  %3 = getelementptr inbounds i8, ptr %1, i64 20
  %4 = load i32, ptr %3, align 4
  %5 = trunc i32 %4 to i16
  %6 = add i16 %5, 1900
  store i16 %6, ptr %0, align 2
  %7 = getelementptr inbounds i8, ptr %1, i64 16
  %8 = load i32, ptr %7, align 8
  %9 = trunc i32 %8 to i8
  %10 = add i8 %9, 1
  %11 = getelementptr inbounds i8, ptr %0, i64 2
  store i8 %10, ptr %11, align 2
  %12 = getelementptr inbounds i8, ptr %1, i64 12
  %13 = load i32, ptr %12, align 4
  %14 = trunc i32 %13 to i8
  %15 = getelementptr inbounds i8, ptr %0, i64 3
  store i8 %14, ptr %15, align 1
  %16 = getelementptr inbounds i8, ptr %1, i64 8
  %17 = load i32, ptr %16, align 8
  %18 = trunc i32 %17 to i8
  %19 = getelementptr inbounds i8, ptr %0, i64 4
  store i8 %18, ptr %19, align 2
  %20 = getelementptr inbounds i8, ptr %1, i64 4
  %21 = load i32, ptr %20, align 4
  %22 = trunc i32 %21 to i8
  %23 = getelementptr inbounds i8, ptr %0, i64 5
  store i8 %22, ptr %23, align 1
  %24 = load i32, ptr %1, align 8
  %25 = trunc i32 %24 to i8
  %26 = getelementptr inbounds i8, ptr %0, i64 6
  store i8 %25, ptr %26, align 2
  ret void
}